; Function Attrs: nounwind uwtable
define internal float @_action_process_focus_button(ptr noundef %0, i32 noundef %1, i32 noundef %2, float noundef %3) #0 {
  %5 = alloca i32, align 4
  %6 = alloca ptr, align 8
  store i32 %1, ptr %5, align 4, !tbaa !79
  call void @llvm.lifetime.start.p0(i64 8, ptr nonnull %6) #19
  %7 = getelementptr inbounds nuw i8, ptr %0, i64 816
  %8 = load ptr, ptr %7, align 16, !tbaa !297
  store ptr %8, ptr %6, align 8, !tbaa !298
  %9 = call fastcc i32 @_find_nth_bauhaus(ptr noundef %6, ptr noundef %5, i32 noundef 0)
  %.not = icmp eq i32 %9, 0
  %10 = fcmp reassoc nsz arcp contract afn une float %3, 0xC7EFFFFFE0000000
  br i1 %.not, label %25, label %11

11:                                               ; preds = %4
  %.pre = load ptr, ptr %6, align 8, !tbaa !298
  br i1 %10, label %12, label %13

12:                                               ; preds = %11
  tail call fastcc void @_action_process_button(ptr noundef %.pre, i32 noundef %2)
  br label %13

13:                                               ; preds = %12, %11
  %14 = load atomic i64, ptr @dt_bh_get_type.static_g_define_type_id seq_cst, align 8
  %.not.i.i.i = icmp eq i64 %14, 0
  br i1 %.not.i.i.i, label %15, label %dt_bauhaus_widget_get_quad_active.exit

15:                                               ; preds = %13
  %16 = tail call i32 @g_once_init_enter(ptr noundef nonnull @dt_bh_get_type.static_g_define_type_id) #19
  %.not4.i.i.i = icmp eq i32 %16, 0
  br i1 %.not4.i.i.i, label %dt_bauhaus_widget_get_quad_active.exit, label %17

17:                                               ; preds = %15
  %18 = tail call fastcc i64 @dt_bh_get_type_once()
  tail call void @g_once_init_leave(ptr noundef nonnull @dt_bh_get_type.static_g_define_type_id, i64 noundef %18) #19
  br label %dt_bauhaus_widget_get_quad_active.exit

dt_bauhaus_widget_get_quad_active.exit:           ; preds = %13, %15, %17
  %19 = load i64, ptr @dt_bh_get_type.static_g_define_type_id, align 8, !tbaa !6
  %20 = tail call ptr @g_type_check_instance_cast(ptr noundef %.pre, i64 noundef %19) #19
  %21 = getelementptr inbounds nuw i8, ptr %20, i64 360
  %22 = load i32, ptr %21, align 8, !tbaa !197
  %23 = lshr i32 %22, 4
  %.lobit.i = and i32 %23, 1
  %24 = uitofp nneg i32 %.lobit.i to float
  br label %28

25:                                               ; preds = %4
  br i1 %10, label %26, label %28

26:                                               ; preds = %25
  %27 = tail call ptr @dcgettext(ptr noundef null, ptr noundef nonnull @.str.107, i32 noundef 5) #19
  tail call void (ptr, ptr, ptr, ...) @dt_action_widget_toast(ptr noundef nonnull %0, ptr noundef null, ptr noundef %27) #19
  br label %28

28:                                               ; preds = %25, %26, %dt_bauhaus_widget_get_quad_active.exit
  %.0 = phi nsz float [ %24, %dt_bauhaus_widget_get_quad_active.exit ], [ 0xC7EFFFFFE0000000, %26 ], [ 0xC7EFFFFFE0000000, %25 ]
  call void @llvm.lifetime.end.p0(i64 8, ptr nonnull %6) #19
  ret float %.0
}